target datalayout = "e-m:e-p270:32:32-p271:32:32-p272:64:64-i64:64-i128:128-f80:128-n8:16:32:64-S128"
target triple = "x86_64-unknown-linux-gnu"

%struct.timeval = type { i64, i64 }
%struct.timezone_ = type { %struct.timezone }
%struct.timezone = type { i32, i32 }
%struct.tm = type { i32, i32, i32, i32, i32, i32, i32, i32, i32, i64, ptr }

@timezone = external global i64, align 8

; Function Attrs: mustprogress nounwind uwtable
define dso_local noundef i32 @_ZN2EA4StdC12GetTimeOfDayEP7timevalP9timezone_b(ptr noundef %pTV, ptr noundef %pTZ, i1 noundef zeroext %bUTC) #3 {
entry:
  %pTV.addr = alloca ptr, align 8
  %pTZ.addr = alloca ptr, align 8
  %bUTC.addr = alloca i8, align 1
  %tz = alloca %struct.timezone_, align 4
  %tv = alloca %struct.timeval, align 8
  %result = alloca i32, align 4
  %nowtm = alloca i64, align 8
  %tmResult = alloca %struct.tm, align 8
  %ptmResult = alloca ptr, align 8
  store ptr %pTV, ptr %pTV.addr, align 8
  store ptr %pTZ, ptr %pTZ.addr, align 8
  %frombool = zext i1 %bUTC to i8
  store i8 %frombool, ptr %bUTC.addr, align 1
  %0 = load ptr, ptr %pTZ.addr, align 8
  %tobool = icmp ne ptr %0, null
  br i1 %tobool, label %if.end, label %if.then

if.then:                                          ; preds = %entry
  store ptr %tz, ptr %pTZ.addr, align 8
  br label %if.end

if.end:                                           ; preds = %if.then, %entry
  %1 = load ptr, ptr %pTV.addr, align 8
  %tobool1 = icmp ne ptr %1, null
  br i1 %tobool1, label %if.end3, label %if.then2

if.then2:                                         ; preds = %if.end
  store ptr %tv, ptr %pTV.addr, align 8
  br label %if.end3

if.end3:                                          ; preds = %if.then2, %if.end
  %2 = load ptr, ptr %pTV.addr, align 8
  %3 = load ptr, ptr %pTZ.addr, align 8
  %call = call i32 @gettimeofday(ptr noundef %2, ptr noundef %3) #1
  store i32 %call, ptr %result, align 4
  %4 = load i64, ptr @timezone, align 8
  %div = sdiv i64 %4, 60
  %conv = trunc i64 %div to i32
  %5 = load ptr, ptr %pTZ.addr, align 8
  %tz_minuteswest = getelementptr inbounds %struct.timezone, ptr %5, i32 0, i32 0
  store i32 %conv, ptr %tz_minuteswest, align 4
  %6 = load ptr, ptr %pTV.addr, align 8
  %tv_sec = getelementptr inbounds %struct.timeval, ptr %6, i32 0, i32 0
  %7 = load i64, ptr %tv_sec, align 8
  store i64 %7, ptr %nowtm, align 8
  %call4 = call ptr @localtime_r(ptr noundef %nowtm, ptr noundef %tmResult) #1
  store ptr %call4, ptr %ptmResult, align 8
  %8 = load i32, ptr %result, align 4
  %cmp = icmp ne i32 %8, 0
  br i1 %cmp, label %cond.true, label %cond.false

cond.true:                                        ; preds = %if.end3
  %9 = load i32, ptr %result, align 4
  br label %cond.end

cond.false:                                       ; preds = %if.end3
  %10 = load ptr, ptr %ptmResult, align 8
  %cmp5 = icmp eq ptr %10, %tmResult
  %lnot = xor i1 %cmp5, true
  %conv6 = zext i1 %lnot to i32
  br label %cond.end

cond.end:                                         ; preds = %cond.false, %cond.true
  %cond = phi i32 [ %9, %cond.true ], [ %conv6, %cond.false ]
  store i32 %cond, ptr %result, align 4
  %tm_isdst = getelementptr inbounds %struct.tm, ptr %tmResult, i32 0, i32 8
  %11 = load i32, ptr %tm_isdst, align 8
  %12 = load ptr, ptr %pTZ.addr, align 8
  %tz_dsttime = getelementptr inbounds %struct.timezone, ptr %12, i32 0, i32 1
  store i32 %11, ptr %tz_dsttime, align 4
  %13 = load i32, ptr %result, align 4
  %cmp7 = icmp eq i32 %13, 0
  br i1 %cmp7, label %land.lhs.true, label %if.end20

land.lhs.true:                                    ; preds = %cond.end
  %14 = load ptr, ptr %pTV.addr, align 8
  %tobool8 = icmp ne ptr %14, null
  br i1 %tobool8, label %if.then9, label %if.end20

if.then9:                                         ; preds = %land.lhs.true
  %15 = load i8, ptr %bUTC.addr, align 1
  %tobool10 = trunc i8 %15 to i1
  br i1 %tobool10, label %if.end19, label %if.then11

if.then11:                                        ; preds = %if.then9
  %16 = load ptr, ptr %pTZ.addr, align 8
  %tz_minuteswest12 = getelementptr inbounds %struct.timezone, ptr %16, i32 0, i32 0
  %17 = load i32, ptr %tz_minuteswest12, align 4
  %mul = mul nsw i32 %17, 60
  %18 = load ptr, ptr %pTZ.addr, align 8
  %tz_dsttime13 = getelementptr inbounds %struct.timezone, ptr %18, i32 0, i32 1
  %19 = load i32, ptr %tz_dsttime13, align 4
  %tobool14 = icmp ne i32 %19, 0
  %cond15 = select i1 %tobool14, i32 3600, i32 0
  %sub = sub nsw i32 %mul, %cond15
  %conv16 = sext i32 %sub to i64
  %20 = load ptr, ptr %pTV.addr, align 8
  %tv_sec17 = getelementptr inbounds %struct.timeval, ptr %20, i32 0, i32 0
  %21 = load i64, ptr %tv_sec17, align 8
  %sub18 = sub nsw i64 %21, %conv16
  store i64 %sub18, ptr %tv_sec17, align 8
  br label %if.end19

if.end19:                                         ; preds = %if.then11, %if.then9
  br label %if.end20

if.end20:                                         ; preds = %if.end19, %land.lhs.true, %cond.end
  %22 = load i32, ptr %result, align 4
  ret i32 %22
}